target datalayout = "e-m:e-p270:32:32-p271:32:32-p272:64:64-i64:64-i128:128-f80:128-n8:16:32:64-S128"
target triple = "x86_64-unknown-linux-gnu"

%class.anon.164 = type { i64, ptr, ptr }

; Function Attrs: mustprogress uwtable
define internal noundef zeroext i1 @"_ZZN8facebook5velox6memory12_GLOBAL__N_122treeMemoryUsageVisitorEPNS1_10MemoryPoolEmRSt14priority_queueINS2_11MemoryUsageESt6vectorIS6_SaIS6_EENS2_15MemoryUsageCompEERNSt7__cxx1118basic_stringstreamIcSt11char_traitsIcESaIcEEEENK3$_0clES4_"(ptr noundef nonnull align 8 dereferenceable(24) %this, ptr noundef %pool) #0 align 2 {
entry:
  %this.addr = alloca ptr, align 8
  %pool.addr = alloca ptr, align 8
  store ptr %this, ptr %this.addr, align 8
  store ptr %pool, ptr %pool.addr, align 8
  %this1 = load ptr, ptr %this.addr, align 8
  %0 = load ptr, ptr %pool.addr, align 8
  %1 = getelementptr inbounds %class.anon.164, ptr %this1, i32 0, i32 0
  %2 = load i64, ptr %1, align 8
  %3 = getelementptr inbounds %class.anon.164, ptr %this1, i32 0, i32 1
  %4 = load ptr, ptr %3, align 8
  %5 = getelementptr inbounds %class.anon.164, ptr %this1, i32 0, i32 2
  %6 = load ptr, ptr %5, align 8
  call void @_ZN8facebook5velox6memory12_GLOBAL__N_122treeMemoryUsageVisitorEPNS1_10MemoryPoolEmRSt14priority_queueINS2_11MemoryUsageESt6vectorIS6_SaIS6_EENS2_15MemoryUsageCompEERNSt7__cxx1118basic_stringstreamIcSt11char_traitsIcESaIcEEE(ptr noundef %0, i64 noundef %2, ptr noundef nonnull align 8 dereferenceable(25) %4, ptr noundef nonnull align 8 dereferenceable(128) %6)
  ret i1 true
}

; Function Attrs: mustprogress nounwind uwtable
define linkonce_odr noundef ptr @_ZNKSt9_Any_data9_M_accessEv(ptr noundef nonnull align 8 dereferenceable(16) %this) #3 comdat align 2 {
entry:
  %this.addr = alloca ptr, align 8
  store ptr %this, ptr %this.addr, align 8
  %this1 = load ptr, ptr %this.addr, align 8
  %arrayidx = getelementptr inbounds [16 x i8], ptr %this1, i64 0, i64 0
  ret ptr %arrayidx
}

; Function Attrs: mustprogress uwtable
define internal noundef zeroext i1 @"_ZSt13__invoke_implIbRZN8facebook5velox6memory12_GLOBAL__N_122treeMemoryUsageVisitorEPNS2_10MemoryPoolEmRSt14priority_queueINS3_11MemoryUsageESt6vectorIS7_SaIS7_EENS3_15MemoryUsageCompEERNSt7__cxx1118basic_stringstreamIcSt11char_traitsIcESaIcEEEE3$_0JS5_EET_St14__invoke_otherOT0_DpOT1_"(ptr noundef nonnull align 8 dereferenceable(24) %__f, ptr noundef nonnull align 8 dereferenceable(8) %__args) #0 {
entry:
  %__f.addr = alloca ptr, align 8
  %__args.addr = alloca ptr, align 8
  store ptr %__f, ptr %__f.addr, align 8
  store ptr %__args, ptr %__args.addr, align 8
  %0 = load ptr, ptr %__f.addr, align 8
  %1 = load ptr, ptr %__args.addr, align 8
  %2 = load ptr, ptr %1, align 8
  %call = call noundef zeroext i1 @"_ZZN8facebook5velox6memory12_GLOBAL__N_122treeMemoryUsageVisitorEPNS1_10MemoryPoolEmRSt14priority_queueINS2_11MemoryUsageESt6vectorIS6_SaIS6_EENS2_15MemoryUsageCompEERNSt7__cxx1118basic_stringstreamIcSt11char_traitsIcESaIcEEEENK3$_0clES4_"(ptr noundef nonnull align 8 dereferenceable(24) %0, ptr noundef %2)
  ret i1 %call
}

; Function Attrs: mustprogress nounwind uwtable
define internal noundef nonnull align 8 dereferenceable(8) ptr @"_ZNKSt9_Any_data9_M_accessIPZN8facebook5velox6memory12_GLOBAL__N_122treeMemoryUsageVisitorEPNS3_10MemoryPoolEmRSt14priority_queueINS4_11MemoryUsageESt6vectorIS8_SaIS8_EENS4_15MemoryUsageCompEERNSt7__cxx1118basic_stringstreamIcSt11char_traitsIcESaIcEEEE3$_0EERKT_v"(ptr noundef nonnull align 8 dereferenceable(16) %this) #3 align 2 {
entry:
  %this.addr = alloca ptr, align 8
  store ptr %this, ptr %this.addr, align 8
  %this1 = load ptr, ptr %this.addr, align 8
  %call = call noundef ptr @_ZNKSt9_Any_data9_M_accessEv(ptr noundef nonnull align 8 dereferenceable(16) %this1) #11
  ret ptr %call
}

; Function Attrs: mustprogress uwtable
define internal noundef zeroext i1 @"_ZSt10__invoke_rIbRZN8facebook5velox6memory12_GLOBAL__N_122treeMemoryUsageVisitorEPNS2_10MemoryPoolEmRSt14priority_queueINS3_11MemoryUsageESt6vectorIS7_SaIS7_EENS3_15MemoryUsageCompEERNSt7__cxx1118basic_stringstreamIcSt11char_traitsIcESaIcEEEE3$_0JS5_EENSt9enable_ifIX16is_invocable_r_vIT_T0_DpT1_EESO_E4typeEOSP_DpOSQ_"(ptr noundef nonnull align 8 dereferenceable(24) %__fn, ptr noundef nonnull align 8 dereferenceable(8) %__args) #0 {
entry:
  %__fn.addr = alloca ptr, align 8
  %__args.addr = alloca ptr, align 8
  store ptr %__fn, ptr %__fn.addr, align 8
  store ptr %__args, ptr %__args.addr, align 8
  %0 = load ptr, ptr %__fn.addr, align 8
  %1 = load ptr, ptr %__args.addr, align 8
  %call = call noundef zeroext i1 @"_ZSt13__invoke_implIbRZN8facebook5velox6memory12_GLOBAL__N_122treeMemoryUsageVisitorEPNS2_10MemoryPoolEmRSt14priority_queueINS3_11MemoryUsageESt6vectorIS7_SaIS7_EENS3_15MemoryUsageCompEERNSt7__cxx1118basic_stringstreamIcSt11char_traitsIcESaIcEEEE3$_0JS5_EET_St14__invoke_otherOT0_DpOT1_"(ptr noundef nonnull align 8 dereferenceable(24) %0, ptr noundef nonnull align 8 dereferenceable(8) %1)
  ret i1 %call
}

; Function Attrs: mustprogress nounwind uwtable
define internal noundef ptr @"_ZNSt14_Function_base13_Base_managerIZN8facebook5velox6memory12_GLOBAL__N_122treeMemoryUsageVisitorEPNS3_10MemoryPoolEmRSt14priority_queueINS4_11MemoryUsageESt6vectorIS8_SaIS8_EENS4_15MemoryUsageCompEERNSt7__cxx1118basic_stringstreamIcSt11char_traitsIcESaIcEEEE3$_0E14_M_get_pointerERKSt9_Any_data"(ptr noundef nonnull align 8 dereferenceable(16) %__source) #3 align 2 {
entry:
  %__source.addr = alloca ptr, align 8
  store ptr %__source, ptr %__source.addr, align 8
  %0 = load ptr, ptr %__source.addr, align 8
  %call = call noundef nonnull align 8 dereferenceable(8) ptr @"_ZNKSt9_Any_data9_M_accessIPZN8facebook5velox6memory12_GLOBAL__N_122treeMemoryUsageVisitorEPNS3_10MemoryPoolEmRSt14priority_queueINS4_11MemoryUsageESt6vectorIS8_SaIS8_EENS4_15MemoryUsageCompEERNSt7__cxx1118basic_stringstreamIcSt11char_traitsIcESaIcEEEE3$_0EERKT_v"(ptr noundef nonnull align 8 dereferenceable(16) %0) #11
  %1 = load ptr, ptr %call, align 8
  ret ptr %1
}

; Function Attrs: mustprogress uwtable
define internal noundef zeroext i1 @"_ZNSt17_Function_handlerIFbPN8facebook5velox6memory10MemoryPoolEEZNS2_12_GLOBAL__N_122treeMemoryUsageVisitorES4_mRSt14priority_queueINS6_11MemoryUsageESt6vectorIS8_SaIS8_EENS6_15MemoryUsageCompEERNSt7__cxx1118basic_stringstreamIcSt11char_traitsIcESaIcEEEE3$_0E9_M_invokeERKSt9_Any_dataOS4_"(ptr noundef nonnull align 8 dereferenceable(16) %__functor, ptr noundef nonnull align 8 dereferenceable(8) %__args) #0 align 2 {
entry:
  %__functor.addr = alloca ptr, align 8
  %__args.addr = alloca ptr, align 8
  store ptr %__functor, ptr %__functor.addr, align 8
  store ptr %__args, ptr %__args.addr, align 8
  %0 = load ptr, ptr %__functor.addr, align 8
  %call = call noundef ptr @"_ZNSt14_Function_base13_Base_managerIZN8facebook5velox6memory12_GLOBAL__N_122treeMemoryUsageVisitorEPNS3_10MemoryPoolEmRSt14priority_queueINS4_11MemoryUsageESt6vectorIS8_SaIS8_EENS4_15MemoryUsageCompEERNSt7__cxx1118basic_stringstreamIcSt11char_traitsIcESaIcEEEE3$_0E14_M_get_pointerERKSt9_Any_data"(ptr noundef nonnull align 8 dereferenceable(16) %0) #11
  %1 = load ptr, ptr %__args.addr, align 8
  %call1 = call noundef zeroext i1 @"_ZSt10__invoke_rIbRZN8facebook5velox6memory12_GLOBAL__N_122treeMemoryUsageVisitorEPNS2_10MemoryPoolEmRSt14priority_queueINS3_11MemoryUsageESt6vectorIS7_SaIS7_EENS3_15MemoryUsageCompEERNSt7__cxx1118basic_stringstreamIcSt11char_traitsIcESaIcEEEE3$_0JS5_EENSt9enable_ifIX16is_invocable_r_vIT_T0_DpT1_EESO_E4typeEOSP_DpOSQ_"(ptr noundef nonnull align 8 dereferenceable(24) %call, ptr noundef nonnull align 8 dereferenceable(8) %1)
  ret i1 %call1
}